ccopy_reg
_reconstructor
p0
(crequests.sessions
Session
p1
c__builtin__
object
p2
Ntp3
Rp4
(dp5
S'cookies'
p6
g0
(crequests.cookies
RequestsCookieJar
p7
g2
Ntp8
Rp9
(dp10
S'_now'
p11
I1452837135
sS'_policy'
p12
(icookielib
DefaultCookiePolicy
p13
(dp14
S'strict_rfc2965_unverifiable'
p15
I01
sS'strict_ns_domain'
p16
I0
sS'_allowed_domains'
p17
NsS'rfc2109_as_netscape'
p18
NsS'rfc2965'
p19
I00
sS'strict_domain'
p20
I00
sg11
I1452837135
sS'strict_ns_set_path'
p21
I00
sS'strict_ns_unverifiable'
p22
I00
sS'strict_ns_set_initial_dollar'
p23
I00
sS'hide_cookie2'
p24
I00
sS'_blocked_domains'
p25
(tsS'netscape'
p26
I01
sbsS'_cookies'
p27
(dp28
S'www.nexusclash.com'
p29
(dp30
S'/'
p31
(dp32
S'lang'
p33
(icookielib
Cookie
p34
(dp35
S'comment'
p36
NsS'domain'
p37
g29
sS'name'
p38
g33
sS'domain_initial_dot'
p39
I00
sS'expires'
p40
I1484373251
sS'value'
p41
S'english'
p42
sS'domain_specified'
p43
I00
sS'_rest'
p44
(dp45
sS'version'
p46
I0
sS'port_specified'
p47
I00
sS'rfc2109'
p48
I00
sS'discard'
p49
I00
sS'path_specified'
p50
I00
sS'path'
p51
g31
sS'port'
p52
NsS'comment_url'
p53
NsS'secure'
p54
I00
sbsS'user'
p55
(icookielib
Cookie
p56
(dp57
g36
Nsg37
S'www.nexusclash.com'
p58
sg38
g55
sg39
I00
sg40
I1455429259
sg41
S'NTY2OmtsYXBhdWNpdXM6OTU4MmVjY2VjMWZlNWI5MTU4ZTQ2YTc2M2U3NWJkMTM6MTA6OjA6MDowOjA6OjQwOTY%3D'
p59
sg43
I00
sg44
(dp60
sg46
I0
sg47
I00
sg48
I00
sg49
I00
sg50
I00
sg51
g31
sg52
Nsg53
Nsg54
I00
sbssssbsS'stream'
p61
I00
sS'hooks'
p62
(dp63
S'response'
p64
(lp65
ssS'redirect_cache'
p66
(dp67
sS'auth'
p68
NsS'trust_env'
p69
I01
sS'headers'
p70
g0
(crequests.structures
CaseInsensitiveDict
p71
g2
Ntp72
Rp73
(dp74
S'_store'
p75
(dp76
S'connection'
p77
(S'Connection'
p78
S'keep-alive'
p79
tp80
sS'referer'
p81
(S'referer'
p82
S'http://www.nexusclash.com/modules.php?name=Game'
p83
tp84
sS'accept-encoding'
p85
(S'Accept-Encoding'
p86
S'gzip, deflate'
p87
tp88
sS'accept'
p89
(S'Accept'
p90
S'*/*'
p91
tp92
sS'user-agent'
p93
(S'User-Agent'
p94
S'python-requests/2.9.0'
p95
tp96
ssbsS'cert'
p97
NsS'params'
p98
(dp99
sS'prefetch'
p100
NsS'verify'
p101
I01
sS'proxies'
p102
(dp103
sS'adapters'
p104
crequests.packages.urllib3.packages.ordered_dict
OrderedDict
p105
((lp106
(lp107
S'https://'
p108
ag0
(crequests.adapters
HTTPAdapter
p109
g2
Ntp110
Rp111
(dp112
S'_pool_block'
p113
I00
sS'_pool_maxsize'
p114
I10
sS'max_retries'
p115
g0
(crequests.packages.urllib3.util.retry
Retry
p116
g2
Ntp117
Rp118
(dp119
S'redirect'
p120
NsS'_observed_errors'
p121
I0
sS'read'
p122
I00
sS'backoff_factor'
p123
I0
sS'connect'
p124
NsS'status_forcelist'
p125
c__builtin__
set
p126
((lp127
tp128
Rp129
sS'total'
p130
I0
sS'raise_on_redirect'
p131
I01
sS'method_whitelist'
p132
c__builtin__
frozenset
p133
((lp134
S'HEAD'
p135
aS'TRACE'
p136
aS'GET'
p137
aS'PUT'
p138
aS'OPTIONS'
p139
aS'DELETE'
p140
atp141
Rp142
sbsS'config'
p143
(dp144
sS'_pool_connections'
p145
I10
sbaa(lp146
S'http://'
p147
ag0
(g109
g2
Ntp148
Rp149
(dp150
g113
I00
sg114
I10
sg115
g0
(g116
g2
Ntp151
Rp152
(dp153
g120
Nsg121
I0
sg122
I00
sg123
I0
sg124
Nsg125
g126
((lp154
tp155
Rp156
sg130
I0
sg131
I01
sg132
g142
sbsg143
(dp157
sg145
I10
sbaatp158
Rp159
sS'max_redirects'
p160
I30
sb.